target datalayout = "e-m:e-p270:32:32-p271:32:32-p272:64:64-i64:64-i128:128-f80:128-n8:16:32:64-S128"
target triple = "x86_64-pc-linux-gnu"

%struct.quic_rstream_st = type { %struct.sframe_list_st, ptr, ptr, %struct.uint_range_st, %struct.ring_buf }
%struct.sframe_list_st = type { ptr, ptr, i32, i64, i64, i32, i32 }
%struct.uint_range_st = type { i64, i64 }
%struct.ring_buf = type { ptr, i64, i64, i64 }

; Function Attrs: nounwind uwtable
define i32 @ossl_quic_rstream_resize_rbuf(ptr noundef %0, i64 noundef %1) #0 {
  %3 = alloca i32, align 4
  %4 = alloca ptr, align 8
  %5 = alloca i64, align 8
  store ptr %0, ptr %4, align 8, !tbaa !12
  store i64 %1, ptr %5, align 8, !tbaa !10
  %6 = load ptr, ptr %4, align 8, !tbaa !12
  %7 = getelementptr inbounds nuw %struct.quic_rstream_st, ptr %6, i32 0, i32 0
  %8 = call i32 @ossl_sframe_list_is_head_locked(ptr noundef %7)
  %9 = icmp ne i32 %8, 0
  br i1 %9, label %10, label %11

10:                                               ; preds = %2
  store i32 0, ptr %3, align 4
  br label %23

11:                                               ; preds = %2
  %12 = load ptr, ptr %4, align 8, !tbaa !12
  %13 = getelementptr inbounds nuw %struct.quic_rstream_st, ptr %12, i32 0, i32 4
  %14 = load i64, ptr %5, align 8, !tbaa !10
  %15 = load ptr, ptr %4, align 8, !tbaa !12
  %16 = getelementptr inbounds nuw %struct.quic_rstream_st, ptr %15, i32 0, i32 0
  %17 = getelementptr inbounds nuw %struct.sframe_list_st, ptr %16, i32 0, i32 6
  %18 = load i32, ptr %17, align 4, !tbaa !31
  %19 = call i32 @ring_buf_resize(ptr noundef %13, i64 noundef %14, i32 noundef %18)
  %20 = icmp ne i32 %19, 0
  br i1 %20, label %22, label %21

21:                                               ; preds = %11
  store i32 0, ptr %3, align 4
  br label %23

22:                                               ; preds = %11
  store i32 1, ptr %3, align 4
  br label %23

23:                                               ; preds = %22, %21, %10
  %24 = load i32, ptr %3, align 4
  ret i32 %24
}