; Function Attrs: nounwind uwtable
define range(i32 0, 2) i32 @ossl_quic_rstream_resize_rbuf(ptr noundef %0, i64 noundef %1) local_unnamed_addr #0 {
  %3 = tail call i32 @ossl_sframe_list_is_head_locked(ptr noundef %0) #10
  %.not = icmp eq i32 %3, 0
  br i1 %.not, label %4, label %9

4:                                                ; preds = %2
  %5 = getelementptr inbounds nuw i8, ptr %0, i64 80
  %6 = getelementptr inbounds nuw i8, ptr %0, i64 44
  %7 = load i32, ptr %6, align 4, !tbaa !21
  %8 = tail call fastcc i32 @ring_buf_resize(ptr noundef nonnull %5, i64 noundef %1, i32 noundef %7)
  br label %9

9:                                                ; preds = %4, %2
  %.0 = phi i32 [ 0, %2 ], [ %8, %4 ]
  ret i32 %.0
}